target datalayout = "e-m:e-p270:32:32-p271:32:32-p272:64:64-i64:64-i128:128-f80:128-n8:16:32:64-S128"
target triple = "x86_64-pc-linux-gnu"

%struct.aff_struct = type { ptr, i32, ptr, ptr, %union.anon.0 }
%union.anon.0 = type { %struct.Regis }
%struct.Regis = type { ptr, i32 }

; Function Attrs: nounwind uwtable
define internal i32 @strbcmp(ptr noundef %0, ptr noundef %1) #0 {
  %3 = alloca i32, align 4
  %4 = alloca ptr, align 8
  %5 = alloca ptr, align 8
  %6 = alloca i32, align 4
  %7 = alloca i32, align 4
  %8 = alloca i32, align 4
  store ptr %0, ptr %4, align 8
  store ptr %1, ptr %5, align 8
  call void @llvm.lifetime.start.p0(i64 4, ptr %6) #11
  %9 = load ptr, ptr %4, align 8
  %10 = call i64 @strlen(ptr noundef %9) #14
  %11 = sub i64 %10, 1
  %12 = trunc i64 %11 to i32
  store i32 %12, ptr %6, align 4
  call void @llvm.lifetime.start.p0(i64 4, ptr %7) #11
  %13 = load ptr, ptr %5, align 8
  %14 = call i64 @strlen(ptr noundef %13) #14
  %15 = sub i64 %14, 1
  %16 = trunc i64 %15 to i32
  store i32 %16, ptr %7, align 4
  br label %17

17:                                               ; preds = %55, %2
  %18 = load i32, ptr %6, align 4
  %19 = icmp sge i32 %18, 0
  br i1 %19, label %20, label %23

20:                                               ; preds = %17
  %21 = load i32, ptr %7, align 4
  %22 = icmp sge i32 %21, 0
  br label %23

23:                                               ; preds = %20, %17
  %24 = phi i1 [ false, %17 ], [ %22, %20 ]
  br i1 %24, label %25, label %60

25:                                               ; preds = %23
  %26 = load ptr, ptr %4, align 8
  %27 = load i32, ptr %6, align 4
  %28 = sext i32 %27 to i64
  %29 = getelementptr inbounds i8, ptr %26, i64 %28
  %30 = load i8, ptr %29, align 1
  %31 = zext i8 %30 to i32
  %32 = load ptr, ptr %5, align 8
  %33 = load i32, ptr %7, align 4
  %34 = sext i32 %33 to i64
  %35 = getelementptr inbounds i8, ptr %32, i64 %34
  %36 = load i8, ptr %35, align 1
  %37 = zext i8 %36 to i32
  %38 = icmp slt i32 %31, %37
  br i1 %38, label %39, label %40

39:                                               ; preds = %25
  store i32 -1, ptr %3, align 4
  store i32 1, ptr %8, align 4
  br label %71

40:                                               ; preds = %25
  %41 = load ptr, ptr %4, align 8
  %42 = load i32, ptr %6, align 4
  %43 = sext i32 %42 to i64
  %44 = getelementptr inbounds i8, ptr %41, i64 %43
  %45 = load i8, ptr %44, align 1
  %46 = zext i8 %45 to i32
  %47 = load ptr, ptr %5, align 8
  %48 = load i32, ptr %7, align 4
  %49 = sext i32 %48 to i64
  %50 = getelementptr inbounds i8, ptr %47, i64 %49
  %51 = load i8, ptr %50, align 1
  %52 = zext i8 %51 to i32
  %53 = icmp sgt i32 %46, %52
  br i1 %53, label %54, label %55

54:                                               ; preds = %40
  store i32 1, ptr %3, align 4
  store i32 1, ptr %8, align 4
  br label %71

55:                                               ; preds = %40
  %56 = load i32, ptr %6, align 4
  %57 = add i32 %56, -1
  store i32 %57, ptr %6, align 4
  %58 = load i32, ptr %7, align 4
  %59 = add i32 %58, -1
  store i32 %59, ptr %7, align 4
  br label %17, !llvm.loop !57

60:                                               ; preds = %23
  %61 = load i32, ptr %6, align 4
  %62 = load i32, ptr %7, align 4
  %63 = icmp slt i32 %61, %62
  br i1 %63, label %64, label %65

64:                                               ; preds = %60
  store i32 -1, ptr %3, align 4
  store i32 1, ptr %8, align 4
  br label %71

65:                                               ; preds = %60
  %66 = load i32, ptr %6, align 4
  %67 = load i32, ptr %7, align 4
  %68 = icmp sgt i32 %66, %67
  br i1 %68, label %69, label %70

69:                                               ; preds = %65
  store i32 1, ptr %3, align 4
  store i32 1, ptr %8, align 4
  br label %71

70:                                               ; preds = %65
  store i32 0, ptr %3, align 4
  store i32 1, ptr %8, align 4
  br label %71

71:                                               ; preds = %70, %69, %64, %54, %39
  call void @llvm.lifetime.end.p0(i64 4, ptr %7) #11
  call void @llvm.lifetime.end.p0(i64 4, ptr %6) #11
  %72 = load i32, ptr %3, align 4
  ret i32 %72
}

; Function Attrs: nounwind uwtable
define internal i32 @cmpaffix(ptr noundef %0, ptr noundef %1) #0 {
  %3 = alloca i32, align 4
  %4 = alloca ptr, align 8
  %5 = alloca ptr, align 8
  %6 = alloca ptr, align 8
  %7 = alloca ptr, align 8
  %8 = alloca i32, align 4
  store ptr %0, ptr %4, align 8
  store ptr %1, ptr %5, align 8
  call void @llvm.lifetime.start.p0(i64 8, ptr %6) #11
  %9 = load ptr, ptr %4, align 8
  store ptr %9, ptr %6, align 8
  call void @llvm.lifetime.start.p0(i64 8, ptr %7) #11
  %10 = load ptr, ptr %5, align 8
  store ptr %10, ptr %7, align 8
  %11 = load ptr, ptr %6, align 8
  %12 = getelementptr inbounds nuw %struct.aff_struct, ptr %11, i32 0, i32 1
  %13 = load i32, ptr %12, align 8
  %14 = and i32 %13, 1
  %15 = load ptr, ptr %7, align 8
  %16 = getelementptr inbounds nuw %struct.aff_struct, ptr %15, i32 0, i32 1
  %17 = load i32, ptr %16, align 8
  %18 = and i32 %17, 1
  %19 = icmp slt i32 %14, %18
  br i1 %19, label %20, label %21

20:                                               ; preds = %2
  store i32 -1, ptr %3, align 4
  store i32 1, ptr %8, align 4
  br label %54

21:                                               ; preds = %2
  %22 = load ptr, ptr %6, align 8
  %23 = getelementptr inbounds nuw %struct.aff_struct, ptr %22, i32 0, i32 1
  %24 = load i32, ptr %23, align 8
  %25 = and i32 %24, 1
  %26 = load ptr, ptr %7, align 8
  %27 = getelementptr inbounds nuw %struct.aff_struct, ptr %26, i32 0, i32 1
  %28 = load i32, ptr %27, align 8
  %29 = and i32 %28, 1
  %30 = icmp sgt i32 %25, %29
  br i1 %30, label %31, label %32

31:                                               ; preds = %21
  store i32 1, ptr %3, align 4
  store i32 1, ptr %8, align 4
  br label %54

32:                                               ; preds = %21
  %33 = load ptr, ptr %6, align 8
  %34 = getelementptr inbounds nuw %struct.aff_struct, ptr %33, i32 0, i32 1
  %35 = load i32, ptr %34, align 8
  %36 = and i32 %35, 1
  %37 = icmp eq i32 %36, 0
  br i1 %37, label %38, label %46

38:                                               ; preds = %32
  %39 = load ptr, ptr %6, align 8
  %40 = getelementptr inbounds nuw %struct.aff_struct, ptr %39, i32 0, i32 3
  %41 = load ptr, ptr %40, align 8
  %42 = load ptr, ptr %7, align 8
  %43 = getelementptr inbounds nuw %struct.aff_struct, ptr %42, i32 0, i32 3
  %44 = load ptr, ptr %43, align 8
  %45 = call i32 @strcmp(ptr noundef %41, ptr noundef %44) #14
  store i32 %45, ptr %3, align 4
  store i32 1, ptr %8, align 4
  br label %54

46:                                               ; preds = %32
  %47 = load ptr, ptr %6, align 8
  %48 = getelementptr inbounds nuw %struct.aff_struct, ptr %47, i32 0, i32 3
  %49 = load ptr, ptr %48, align 8
  %50 = load ptr, ptr %7, align 8
  %51 = getelementptr inbounds nuw %struct.aff_struct, ptr %50, i32 0, i32 3
  %52 = load ptr, ptr %51, align 8
  %53 = call i32 @strbcmp(ptr noundef %49, ptr noundef %52)
  store i32 %53, ptr %3, align 4
  store i32 1, ptr %8, align 4
  br label %54

54:                                               ; preds = %46, %38, %31, %20
  call void @llvm.lifetime.end.p0(i64 8, ptr %7) #11
  call void @llvm.lifetime.end.p0(i64 8, ptr %6) #11
  %55 = load i32, ptr %3, align 4
  ret i32 %55
}