; Function Attrs: nofree nounwind memory(read, inaccessiblemem: none) uwtable
define internal i32 @cmpaffix(ptr noundef readonly captures(none) %0, ptr noundef readonly captures(none) %1) #9 {
  %3 = getelementptr inbounds nuw i8, ptr %0, i64 8
  %4 = load i32, ptr %3, align 8
  %5 = and i32 %4, 1
  %6 = getelementptr inbounds nuw i8, ptr %1, i64 8
  %7 = load i32, ptr %6, align 8
  %8 = and i32 %7, 1
  %9 = icmp samesign ult i32 %5, %8
  br i1 %9, label %strbcmp.exit, label %10

10:                                               ; preds = %2
  %11 = icmp samesign ugt i32 %5, %8
  br i1 %11, label %strbcmp.exit, label %12

12:                                               ; preds = %10
  %13 = icmp eq i32 %5, 0
  %14 = getelementptr inbounds nuw i8, ptr %0, i64 24
  %15 = load ptr, ptr %14, align 8
  %16 = getelementptr inbounds nuw i8, ptr %1, i64 24
  %17 = load ptr, ptr %16, align 8
  br i1 %13, label %18, label %20

18:                                               ; preds = %12
  %19 = tail call i32 @strcmp(ptr noundef nonnull dereferenceable(1) %15, ptr noundef nonnull dereferenceable(1) %17) #17
  br label %strbcmp.exit

20:                                               ; preds = %12
  %21 = tail call i64 @strlen(ptr noundef nonnull readonly dereferenceable(1) %15) #17
  %22 = tail call i64 @strlen(ptr noundef nonnull readonly dereferenceable(1) %17) #17
  br label %23

23:                                               ; preds = %35, %20
  %indvars.iv26.i = phi i64 [ %indvars.iv.next27.i, %35 ], [ %22, %20 ]
  %indvars.iv.i = phi i64 [ %indvars.iv.next.i, %35 ], [ %21, %20 ]
  %indvars.iv.next27.i = add i64 %indvars.iv26.i, -1
  %indvars29.i = trunc i64 %indvars.iv.next27.i to i32
  %indvars.iv.next.i = add i64 %indvars.iv.i, -1
  %indvars.i = trunc i64 %indvars.iv.next.i to i32
  %24 = icmp sgt i32 %indvars.i, -1
  %25 = icmp sgt i32 %indvars29.i, -1
  %26 = select i1 %24, i1 %25, i1 false
  br i1 %26, label %27, label %37

27:                                               ; preds = %23
  %28 = and i64 %indvars.iv.next.i, 2147483647
  %29 = getelementptr inbounds nuw i8, ptr %15, i64 %28
  %30 = load i8, ptr %29, align 1
  %31 = and i64 %indvars.iv.next27.i, 2147483647
  %32 = getelementptr inbounds nuw i8, ptr %17, i64 %31
  %33 = load i8, ptr %32, align 1
  %34 = icmp ult i8 %30, %33
  br i1 %34, label %strbcmp.exit, label %35

35:                                               ; preds = %27
  %36 = icmp ugt i8 %30, %33
  br i1 %36, label %strbcmp.exit, label %23, !llvm.loop !32

37:                                               ; preds = %23
  %38 = icmp slt i32 %indvars.i, %indvars29.i
  br i1 %38, label %strbcmp.exit, label %39

39:                                               ; preds = %37
  %40 = icmp sgt i32 %indvars.i, %indvars29.i
  %..i = zext i1 %40 to i32
  br label %strbcmp.exit

strbcmp.exit:                                     ; preds = %35, %27, %39, %37, %10, %2, %18
  %.0 = phi i32 [ %19, %18 ], [ -1, %2 ], [ 1, %10 ], [ -1, %37 ], [ %..i, %39 ], [ -1, %27 ], [ 1, %35 ]
  ret i32 %.0
}